; Function Attrs: mustprogress uwtable
define void @_ZN5draco27PointCloudSequentialEncoder18EncodeGeometryDataEv(ptr dead_on_unwind noalias writable sret(%"class.draco::Status") align 8 %0, ptr nocapture noundef nonnull readonly align 8 dereferenceable(112) %1) unnamed_addr #3 align 2 {
  %3 = alloca i32, align 4
  %4 = getelementptr inbounds i8, ptr %1, i64 8
  %5 = load ptr, ptr %4, align 8
  %6 = getelementptr inbounds i8, ptr %5, i64 160
  %7 = load i32, ptr %6, align 8
  store i32 %7, ptr %3, align 4
  %8 = getelementptr inbounds i8, ptr %1, i64 88
  %9 = load ptr, ptr %8, align 8
  %10 = getelementptr inbounds i8, ptr %9, i64 32
  %11 = load i64, ptr %10, align 8
  %12 = icmp slt i64 %11, 1
  br i1 %12, label %13, label %_ZN5draco13EncoderBuffer6EncodeIiEEbRKT_.exit

13:                                               ; preds = %2
  %14 = getelementptr inbounds i8, ptr %9, i64 8
  %15 = load ptr, ptr %14, align 8
  %16 = getelementptr inbounds i8, ptr %3, i64 4
  %17 = load ptr, ptr %9, align 8
  %18 = ptrtoint ptr %15 to i64
  %19 = ptrtoint ptr %17 to i64
  %20 = sub i64 %18, %19
  %21 = getelementptr inbounds i8, ptr %17, i64 %20
  call void @_ZNSt6vectorIcSaIcEE15_M_range_insertIPKhEEvN9__gnu_cxx17__normal_iteratorIPcS1_EET_S9_St20forward_iterator_tag(ptr noundef nonnull align 8 dereferenceable(24) %9, ptr %21, ptr noundef nonnull %3, ptr noundef nonnull %16)
  br label %_ZN5draco13EncoderBuffer6EncodeIiEEbRKT_.exit

_ZN5draco13EncoderBuffer6EncodeIiEEbRKT_.exit:    ; preds = %2, %13
  store i32 0, ptr %0, align 8, !alias.scope !4
  %22 = getelementptr inbounds i8, ptr %0, i64 8
  call void @_ZNSt7__cxx1112basic_stringIcSt11char_traitsIcESaIcEEC1Ev(ptr noundef nonnull align 8 dereferenceable(32) %22) #15
  ret void
}